; Function Attrs: mustprogress uwtable
define dso_local void @_ZN3net22QuicClientPromisedInfo6CancelEv(ptr noundef nonnull align 8 dereferenceable(96) %this) unnamed_addr #3 align 2 {
_ZN3net22QuicClientPromisedInfo5ResetENS_22QuicRstStreamErrorCodeE.exit:
  %client_request_delegate_ = getelementptr inbounds i8, ptr %this, i64 80
  store ptr null, ptr %client_request_delegate_, align 8
  %session_.i = getelementptr inbounds i8, ptr %this, i64 8
  %0 = load ptr, ptr %session_.i, align 8
  %id_.i = getelementptr inbounds i8, ptr %this, i64 16
  %1 = load i32, ptr %id_.i, align 8
  tail call void @_ZN3net21QuicClientSessionBase13ResetPromisedEjNS_22QuicRstStreamErrorCodeE(ptr noundef nonnull align 8 dereferenceable(2140) %0, i32 noundef %1, i32 noundef 6)
  %2 = load ptr, ptr %session_.i, align 8
  %vtable.i = load ptr, ptr %2, align 8
  %vfn.i = getelementptr inbounds i8, ptr %vtable.i, i64 440
  %3 = load ptr, ptr %vfn.i, align 8
  tail call void %3(ptr noundef nonnull align 8 dereferenceable(2140) %2, ptr noundef nonnull %this)
  ret void
}